; ModuleID = '26/298.cpp'
source_filename = "26/298.cpp"
target datalayout = "e-m:e-p270:32:32-p271:32:32-p272:64:64-i64:64-f80:128-n8:16:32:64-S128"
target triple = "x86_64-pc-linux-gnu"

%"class.std::ios_base::Init" = type { i8 }
%"class.std::basic_istream" = type { i32 (...)**, i64, %"class.std::basic_ios" }
%"class.std::basic_ios" = type { %"class.std::ios_base", %"class.std::basic_ostream"*, i8, i8, %"class.std::basic_streambuf"*, %"class.std::ctype"*, %"class.std::num_put"*, %"class.std::num_get"* }
%"class.std::ios_base" = type { i32 (...)**, i64, i64, i32, i32, i32, %"struct.std::ios_base::_Callback_list"*, %"struct.std::ios_base::_Words", [8 x %"struct.std::ios_base::_Words"], i32, %"struct.std::ios_base::_Words"*, %"class.std::locale" }
%"struct.std::ios_base::_Callback_list" = type { %"struct.std::ios_base::_Callback_list"*, void (i32, %"class.std::ios_base"*, i32)*, i32, i32 }
%"struct.std::ios_base::_Words" = type { i8*, i64 }
%"class.std::locale" = type { %"class.std::locale::_Impl"* }
%"class.std::locale::_Impl" = type { i32, %"class.std::locale::facet"**, i64, %"class.std::locale::facet"**, i8** }
%"class.std::locale::facet" = type <{ i32 (...)**, i32, [4 x i8] }>
%"class.std::basic_ostream" = type { i32 (...)**, %"class.std::basic_ios" }
%"class.std::basic_streambuf" = type { i32 (...)**, i8*, i8*, i8*, i8*, i8*, i8*, %"class.std::locale" }
%"class.std::ctype" = type <{ %"class.std::locale::facet.base", [4 x i8], %struct.__locale_struct*, i8, [7 x i8], i32*, i32*, i16*, i8, [256 x i8], [256 x i8], i8, [6 x i8] }>
%"class.std::locale::facet.base" = type <{ i32 (...)**, i32 }>
%struct.__locale_struct = type { [13 x %struct.__locale_data*], i16*, i32*, i32*, [13 x i8*] }
%struct.__locale_data = type opaque
%"class.std::num_put" = type { %"class.std::locale::facet.base", [4 x i8] }
%"class.std::num_get" = type { %"class.std::locale::facet.base", [4 x i8] }

@_ZStL8__ioinit = internal global %"class.std::ios_base::Init" zeroinitializer, align 1
@__dso_handle = external hidden global i8
@_ZSt3cin = external dso_local global %"class.std::basic_istream", align 8
@_ZSt4cout = external dso_local global %"class.std::basic_ostream", align 8
@llvm.global_ctors = appending global [1 x { i32, void ()*, i8* }] [{ i32, void ()*, i8* } { i32 65535, void ()* @_GLOBAL__sub_I_298.cpp, i8* null }]

; Function Attrs: noinline uwtable
define internal void @__cxx_global_var_init() #0 section ".text.startup" {
  call void @_ZNSt8ios_base4InitC1Ev(%"class.std::ios_base::Init"* @_ZStL8__ioinit)
  %1 = call i32 @__cxa_atexit(void (i8*)* bitcast (void (%"class.std::ios_base::Init"*)* @_ZNSt8ios_base4InitD1Ev to void (i8*)*), i8* getelementptr inbounds (%"class.std::ios_base::Init", %"class.std::ios_base::Init"* @_ZStL8__ioinit, i32 0, i32 0), i8* @__dso_handle) #3
  ret void
}

declare dso_local void @_ZNSt8ios_base4InitC1Ev(%"class.std::ios_base::Init"*) unnamed_addr #1

; Function Attrs: nounwind
declare dso_local void @_ZNSt8ios_base4InitD1Ev(%"class.std::ios_base::Init"*) unnamed_addr #2

; Function Attrs: nounwind
declare dso_local i32 @__cxa_atexit(void (i8*)*, i8*, i8*) #3

; Function Attrs: noinline norecurse uwtable
define dso_local i32 @main() #4 {
  %1 = alloca i32, align 4
  %2 = alloca [1000 x i8], align 16
  %3 = alloca i32, align 4
  %4 = alloca i8*, align 8
  store i32 0, i32* %1, align 4
  %5 = getelementptr inbounds [1000 x i8], [1000 x i8]* %2, i64 0, i64 0
  %6 = call dereferenceable(280) %"class.std::basic_istream"* @_ZNSi7getlineEPcl(%"class.std::basic_istream"* @_ZSt3cin, i8* %5, i64 1000)
  store i32 0, i32* %3, align 4
  store i8* null, i8** %4, align 8
  %7 = getelementptr inbounds [1000 x i8], [1000 x i8]* %2, i64 0, i64 0
  store i8* %7, i8** %4, align 8
  br label %8

8:                                                ; preds = %67, %0
  %9 = load i8*, i8** %4, align 8
  %10 = getelementptr inbounds [1000 x i8], [1000 x i8]* %2, i64 0, i64 0
  %11 = getelementptr inbounds i8, i8* %10, i64 1000
  %12 = icmp ult i8* %9, %11
  br i1 %12, label %13, label %70

13:                                               ; preds = %8
  %14 = load i8*, i8** %4, align 8
  %15 = load i8, i8* %14, align 1
  %16 = sext i8 %15 to i32
  %17 = icmp eq i32 %16, 0
  br i1 %17, label %18, label %19

18:                                               ; preds = %13
  br label %70

19:                                               ; preds = %13
  %20 = load i8*, i8** %4, align 8
  %21 = load i8, i8* %20, align 1
  %22 = sext i8 %21 to i32
  %23 = icmp ne i32 %22, 32
  br i1 %23, label %24, label %28

24:                                               ; preds = %19
  %25 = load i8*, i8** %4, align 8
  %26 = load i8, i8* %25, align 1
  %27 = call dereferenceable(272) %"class.std::basic_ostream"* @_ZStlsISt11char_traitsIcEERSt13basic_ostreamIcT_ES5_c(%"class.std::basic_ostream"* dereferenceable(272) @_ZSt4cout, i8 signext %26)
  br label %31

28:                                               ; preds = %19
  %29 = load i32, i32* %3, align 4
  %30 = add nsw i32 %29, 1
  store i32 %30, i32* %3, align 4
  br label %31

31:                                               ; preds = %28, %24
  br label %32

32:                                               ; preds = %31
  %33 = load i32, i32* %3, align 4
  %34 = icmp sgt i32 %33, 1
  br i1 %34, label %35, label %47

35:                                               ; preds = %32
  %36 = load i8*, i8** %4, align 8
  %37 = load i8, i8* %36, align 1
  %38 = sext i8 %37 to i32
  %39 = icmp eq i32 %38, 32
  br i1 %39, label %40, label %47

40:                                               ; preds = %35
  %41 = load i8*, i8** %4, align 8
  %42 = getelementptr inbounds i8, i8* %41, i64 1
  %43 = load i8, i8* %42, align 1
  %44 = sext i8 %43 to i32
  %45 = icmp eq i32 %44, 32
  br i1 %45, label %46, label %47

46:                                               ; preds = %40
  br label %67

47:                                               ; preds = %40, %35, %32
  %48 = load i32, i32* %3, align 4
  %49 = icmp eq i32 %48, 1
  br i1 %49, label %50, label %54

50:                                               ; preds = %47
  %51 = load i8*, i8** %4, align 8
  %52 = load i8, i8* %51, align 1
  %53 = call dereferenceable(272) %"class.std::basic_ostream"* @_ZStlsISt11char_traitsIcEERSt13basic_ostreamIcT_ES5_c(%"class.std::basic_ostream"* dereferenceable(272) @_ZSt4cout, i8 signext %52)
  br label %54

54:                                               ; preds = %50, %47
  %55 = load i8*, i8** %4, align 8
  %56 = load i8, i8* %55, align 1
  %57 = sext i8 %56 to i32
  %58 = icmp eq i32 %57, 32
  br i1 %58, label %59, label %66

59:                                               ; preds = %54
  %60 = load i8*, i8** %4, align 8
  %61 = getelementptr inbounds i8, i8* %60, i64 1
  %62 = load i8, i8* %61, align 1
  %63 = sext i8 %62 to i32
  %64 = icmp ne i32 %63, 32
  br i1 %64, label %65, label %66

65:                                               ; preds = %59
  store i32 0, i32* %3, align 4
  br label %66

66:                                               ; preds = %65, %59, %54
  br label %67

67:                                               ; preds = %66, %46
  %68 = load i8*, i8** %4, align 8
  %69 = getelementptr inbounds i8, i8* %68, i32 1
  store i8* %69, i8** %4, align 8
  br label %8

70:                                               ; preds = %18, %8
  ret i32 0
}

declare dso_local dereferenceable(280) %"class.std::basic_istream"* @_ZNSi7getlineEPcl(%"class.std::basic_istream"*, i8*, i64) #1

declare dso_local dereferenceable(272) %"class.std::basic_ostream"* @_ZStlsISt11char_traitsIcEERSt13basic_ostreamIcT_ES5_c(%"class.std::basic_ostream"* dereferenceable(272), i8 signext) #1

; Function Attrs: noinline uwtable
define internal void @_GLOBAL__sub_I_298.cpp() #0 section ".text.startup" {
  call void @__cxx_global_var_init()
  ret void
}


!llvm.module.flags = !{!0}
!llvm.ident = !{!1}

!0 = !{i32 1, !"wchar_size", i32 4}
!1 = !{!"clang version 10.0.0-4ubuntu1 "}
